Certificate:
    Data:
        Version: 3 (0x2)
        Serial Number:
            53:2b:2a:7d:c0:b3:1a:0a:6b:42:28:80:bd:f0:06:f3
    Signature Algorithm: sha256WithRSAEncryption
        Issuer: CN=openvpnserver
        Validity
            Not Before: Jun 15 16:32:35 2018 GMT
            Not After : Jun 12 16:32:35 2028 GMT
        Subject: CN=client
        Subject Public Key Info:
            Public Key Algorithm: rsaEncryption
                Public-Key: (2048 bit)
                Modulus:
                    00:b8:a4:0c:37:08:02:a9:75:09:c8:e7:94:f0:39:
                    60:34:52:de:7e:61:63:1f:c9:6c:54:a7:db:e0:0e:
                    73:95:4f:88:da:c8:70:a2:e9:7b:47:cb:bf:83:eb:
                    9e:6a:a0:41:75:68:d7:53:2e:b2:3f:ec:6c:4e:e3:
                    c4:9b:ca:73:3b:bb:4c:04:d3:07:60:a6:e4:c1:8d:
                    05:5b:44:64:29:e3:61:55:5f:93:97:72:64:fc:9b:
                    f2:ee:bb:36:de:d6:eb:36:d4:15:e2:9f:9b:b5:dd:
                    2d:4a:fc:8b:89:c7:0d:66:8b:03:7d:cd:6e:70:85:
                    73:76:9a:c5:7e:14:d8:06:3f:6c:53:07:d7:ce:1b:
                    3d:61:38:d7:32:49:1e:16:61:e2:ed:e4:ad:48:c1:
                    85:6f:91:e7:29:f2:ac:be:f6:01:ad:95:51:28:78:
                    26:93:e2:20:be:65:7d:66:2f:54:ad:20:59:31:b2:
                    05:fc:be:12:ee:e1:84:7d:4f:9c:65:24:df:b2:3c:
                    85:90:dc:e1:4d:7f:c2:5b:f6:88:eb:a8:22:ed:7d:
                    49:7c:60:d0:96:94:10:2b:7a:de:2c:de:5c:5f:7b:
                    63:f9:a8:2e:ef:a1:ff:bf:4c:fc:d0:75:1a:3c:bb:
                    4a:81:e7:8d:a8:bb:79:19:a0:74:87:80:de:4b:e7:
                    92:15
                Exponent: 65537 (0x10001)
        X509v3 extensions:
            X509v3 Basic Constraints: 
                CA:FALSE
            X509v3 Subject Key Identifier: 
                05:EE:01:7B:08:6E:BD:2F:A5:0D:A8:2C:02:75:AD:D5:44:E1:FD:2A
            X509v3 Authority Key Identifier: 
                keyid:86:10:A2:71:25:C4:98:24:4A:CA:71:52:15:85:A2:9A:CB:06:A6:64
                DirName:/CN=openvpnserver
                serial:D3:5B:18:22:97:38:F2:99

            X509v3 Extended Key Usage: 
                TLS Web Client Authentication
            X509v3 Key Usage: 
                Digital Signature
    Signature Algorithm: sha256WithRSAEncryption
         a1:25:38:9a:47:3e:f0:d5:b0:55:32:2a:35:92:60:00:5f:3c:
         be:2c:7e:83:ff:14:e6:a2:1f:e3:4c:b4:9a:5b:59:a5:02:9e:
         e0:0a:23:00:a2:21:aa:ed:b1:0d:74:39:8b:c3:f9:09:52:a2:
         18:58:4a:29:6a:7c:fd:e5:b1:16:cf:11:ab:a8:da:32:ca:1b:
         cd:de:8c:8a:2d:c7:c2:f3:58:8b:b3:bb:82:50:2b:66:01:85:
         10:40:85:35:33:ea:c6:cc:95:d5:d9:d3:01:20:c4:d3:c6:a9:
         a6:67:fa:ee:1e:4b:d1:45:a6:ae:cb:3f:8c:79:8d:54:c6:16:
         49:02:31:1d:b6:7c:ac:33:e3:b2:87:f1:15:be:c7:76:e8:2d:
         aa:86:cf:b8:6b:11:4c:4d:27:43:35:d9:9c:b3:cc:69:78:64:
         d0:1f:fb:af:29:bc:a0:a0:2b:ee:46:4a:9b:d6:f9:64:ca:de:
         73:07:52:cd:43:14:c7:34:1a:89:48:7c:03:e3:0e:f0:80:f9:
         2e:17:3a:65:e6:b5:4f:0f:a1:00:d9:71:cb:32:d1:e0:95:cf:
         78:76:ae:d7:e7:2f:3d:43:53:67:73:5e:d1:6c:84:28:53:0c:
         c4:33:d2:32:50:37:5f:d1:2e:a3:31:82:09:8f:19:f6:bd:30:
         58:48:d8:27
-----BEGIN CERTIFICATE-----
MIIDTTCCAjWgAwIBAgIQUysqfcCzGgprQiiAvfAG8zANBgkqhkiG9w0BAQsFADAY
MRYwFAYDVQQDDA1vcGVudnBuc2VydmVyMB4XDTE4MDYxNTE2MzIzNVoXDTI4MDYx
MjE2MzIzNVowETEPMA0GA1UEAwwGY2xpZW50MIIBIjANBgkqhkiG9w0BAQEFAAOC
AQ8AMIIBCgKCAQEAuKQMNwgCqXUJyOeU8DlgNFLefmFjH8lsVKfb4A5zlU+I2shw
oul7R8u/g+ueaqBBdWjXUy6yP+xsTuPEm8pzO7tMBNMHYKbkwY0FW0RkKeNhVV+T
l3Jk/Jvy7rs23tbrNtQV4p+btd0tSvyLiccNZosDfc1ucIVzdprFfhTYBj9sUwfX
zhs9YTjXMkkeFmHi7eStSMGFb5HnKfKsvvYBrZVRKHgmk+IgvmV9Zi9UrSBZMbIF
/L4S7uGEfU+cZSTfsjyFkNzhTX/CW/aI66gi7X1JfGDQlpQQK3reLN5cX3tj+agu
76H/v0z80HUaPLtKgeeNqLt5GaB0h4DeS+eSFQIDAQABo4GZMIGWMAkGA1UdEwQC
MAAwHQYDVR0OBBYEFAXuAXsIbr0vpQ2oLAJ1rdVE4f0qMEgGA1UdIwRBMD+AFIYQ
onElxJgkSspxUhWFoprLBqZkoRykGjAYMRYwFAYDVQQDDA1vcGVudnBuc2VydmVy
ggkA01sYIpc48pkwEwYDVR0lBAwwCgYIKwYBBQUHAwIwCwYDVR0PBAQDAgeAMA0G
CSqGSIb3DQEBCwUAA4IBAQChJTiaRz7w1bBVMio1kmAAXzy+LH6D/xTmoh/jTLSa
W1mlAp7gCiMAoiGq7bENdDmLw/kJUqIYWEopanz95bEWzxGrqNoyyhvN3oyKLcfC
81iLs7uCUCtmAYUQQIU1M+rGzJXV2dMBIMTTxqmmZ/ruHkvRRaauyz+MeY1UxhZJ
AjEdtnysM+Oyh/EVvsd26C2qhs+4axFMTSdDNdmcs8xpeGTQH/uvKbygoCvuRkqb
1vlkyt5zB1LNQxTHNBqJSHwD4w7wgPkuFzpl5rVPD6EA2XHLMtHglc94dq7X5y89
Q1Nnc17RbIQoUwzEM9IyUDdf0S6jMYIJjxn2vTBYSNgn
-----END CERTIFICATE-----
